(dp1
S'output'
p2
S"<type 'exceptions.KeyError'> 'is_valid'"
p3
sS'layer'
p4
S'/home/www-data/web2py/applications/reliefList/views/default/test.html'
p5
sS'code'
p6
S'response.write(\'<!DOCTYPE html>\\n<!--[if (gt IE 9)|!(IE)]><!--> <html lang="\', escape=False)\nresponse.write(T.accepted_language or \'en\')\nresponse.write(\'"> <!--<![endif]-->\\n  <head>\\n    <meta charset="utf-8">\\n    <meta http-equiv="X-UA-Compatible" content="IE=edge\', escape=False)\nresponse.write(not request.is_local and \',chrome=1\' or \'\')\nresponse.write(\'">\\n    <meta name="viewport" content="width=device-width, initial-scale=1.0">\\n    <title>ReliefList</title>\\n    <meta name="application-name" content="\', escape=False)\nresponse.write(request.application)\nresponse.write(\'">\\n    <meta name="google-site-verification" content="">\\n    <link rel="stylesheet" href="\', escape=False)\nresponse.write(URL(\'static\',\'css/style.css\'))\nresponse.write(\'">\\n    <link rel="stylesheet" href="https://maxcdn.bootstrapcdn.com/font-awesome/4.7.0/css/font-awesome.min.css">\\n    <link rel="stylesheet" href="https://cdnjs.cloudflare.com/ajax/libs/bulma/0.6.0/css/bulma.min.css">\\n    <link rel="stylesheet" href="\', escape=False)\nresponse.write(URL(\'static\',\'css/web2py.css\'))\nresponse.write(\'">\\n    <script src="\', escape=False)\nresponse.write(URL(\'static\',\'js/modernizr-2.8.3.min.js\'))\nresponse.write(\'"></script>\\n    \', escape=False)\nresponse.write(\'<script type="text/javascript"><!--\\n    // These variables are used by the web2py_ajax_init function in web2py_ajax.js (which is loaded below).\\n    \', escape=False)\nresponse.write(ASSIGNJS(\nw2p_ajax_confirm_message = T(\'Are you sure you want to delete this object?\'),\nw2p_ajax_disable_with_message = T(\'Working...\'),\nw2p_ajax_date_format = T(\'%Y-%m-%d\'),\nw2p_ajax_datetime_format = T(\'%Y-%m-%d %H:%M:%S\'),\najax_error_500 = T.M(\'An error occured, please [[reload %s]] the page\') % URL(args=request.args, vars=request.get_vars)\n))\nresponse.write(\'\\n    //--></script>\\n\', escape=False)\nresponse.files.insert(0,URL(\'static\',\'js/jquery.js\'))\nresponse.files.insert(1,URL(\'static\',\'css/calendar.css\'))\nresponse.files.insert(2,URL(\'static\',\'js/calendar.js\'))\nresponse.files.insert(3,URL(\'static\',\'js/web2py.js\'))\nresponse.include_meta()\nresponse.include_files()\nresponse.write(\'\\n\', escape=False)\nresponse.write(\'\\n  </head>\\n  <body>\\n    <nav class="navbar has-shadow" role="navigation" aria-label="main navigation">\\n      <div class="navbar-brand navbar-item">\\n        <label class="is-size-1">heicheleList</label>\\n      </div>\\n      \', escape=False)\nif not auth.user:\n    response.write(\'\\n      <div class="navbar-end">\\n        <a class="navbar-item" href="\', escape=False)\n    response.write(URL(\'user/login\'))\n    response.write(\'">Login</a>\\n        <a class="navbar-item" href="\', escape=False)\n    response.write(URL(\'user/register\'))\n    response.write(\'">Sign Up</a>\\n      </div>\\n      \', escape=False)\nelse:\n    response.write(\'\\n      <div class="navbar-start">\\n        <a class="navbar-item" href="\', escape=False)\n    response.write(URL(\'home\'))\n    response.write(\'">Home</a>\\n      </div>\\n      <div class="navbar-end">\\n        <a class="navbar-item" href="\', escape=False)\n    response.write(URL(\'user/profile\'))\n    response.write(\'">Profile</a>\\n        <a class="navbar-item" href="\', escape=False)\n    response.write(URL(\'user/change_password\'))\n    response.write(\'">Change Password</a>\\n        <a class="navbar-item" href="\', escape=False)\n    response.write(URL(\'user/logout\'))\n    response.write(\'">Logout</a>\\n      </div>\\n      \', escape=False)\n    pass\nresponse.write(\'\\n    </nav>\\n\\n    <div class="w2p_flash alert alert-dismissable">\', escape=False)\nresponse.write(response.flash or \'\')\nresponse.write(\'</div>\\n\\n    <!-- Masthead ===================================== -->\\n    \', escape=False)\nif request.function == \'index\':\n    response.write(\'\\n    <section class="hero is-primary is-medium">\\n      <div class="hero-body">\\n        <div class="container">\\n          <h1 class="title is-size-1">\\n            heicheleList\\n          </h1>\\n          <h2 class="subtitle">\\n            When in need : Find your need\\n          </h2>\\n        </div>\\n      </div>\\n    </section>\\n    \', escape=False)\nelse:\n    response.write(\'\\n    \', escape=False)\n    pass\nresponse.write(\'\\n    <!-- Main ========================================= -->\\n    <!-- Begin page content -->\\n    <div>\\n    \', escape=False)\nresponse.write(\'\\n\\n\', escape=False)\nresponse.write(test[\'is_valid\'])\nresponse.write(\'\\n\\n\', escape=False)\nresponse.write(test)\nresponse.write(\'\\n\', escape=False)\nresponse.write(\'\\n    </div>\\n    <!-- Footer ======================================= -->\\n\\n    <footer class="footer">\\n      <div class="container">\\n        <div class="content has-text-centered">\\n          <p>\\n            heicheleList\\n          </p>\\n          <p>\\n            When in need : Find your need\\n          </p>\\n        </div>\\n      </div>\\n    </footer>\\n    <!-- The javascript =============================== -->\\n    <script src="\', escape=False)\nresponse.write(URL(\'static\',\'theme/vendor/jquery/jquery.min.js\'))\nresponse.write(\'"></script>\\n\\n  </body>\\n</html>\\n\', escape=False)'
p7
sS'snapshot'
p8
(dp9
sS'traceback'
p10
S'Traceback (most recent call last):\n  File "/home/www-data/web2py/gluon/restricted.py", line 219, in restricted\n    exec(ccode, environment)\n  File "/home/www-data/web2py/applications/reliefList/views/default/test.html", line 58, in <module>\nKeyError: \'is_valid\'\n'
p11
s.