(dp1
S'output'
p2
S"<type 'exceptions.ValueError'> min() arg is an empty sequence"
p3
sS'layer'
p4
S'/home/www-data/web2py/applications/reliefList/controllers/default.py'
p5
sS'code'
p6
S'<code object <module> at 0x7f9cd45350b0, file "/home/www-data/web2py/applications/reliefList/controllers/default.py", line 2>'
p7
sS'snapshot'
p8
(dp9
sS'traceback'
p10
S'Traceback (most recent call last):\n  File "/home/www-data/web2py/gluon/restricted.py", line 219, in restricted\n    exec(ccode, environment)\n  File "/home/www-data/web2py/applications/reliefList/controllers/default.py", line 178, in <module>\n  File "/home/www-data/web2py/gluon/globals.py", line 414, in <lambda>\n    self._caller = lambda f: f()\n  File "/home/www-data/web2py/applications/reliefList/controllers/default.py", line 100, in productDeliveryPayment\n    db(db.productInfo.id == prodId).update(**{\'estDeliveryAmount\':min(float(rate[\'amount_local\']) for rate in shipmentInfo.rates)})\nValueError: min() arg is an empty sequence\n'
p11
s.